target datalayout = "e-m:e-p270:32:32-p271:32:32-p272:64:64-i64:64-i128:128-f80:128-n8:16:32:64-S128"
target triple = "x86_64-pc-linux-gnu"

%"class.pxrInternal_v0_24__pxrReserved__::UsdTimeCode" = type { double }
%"class.pxrInternal_v0_24__pxrReserved__::GfMatrix4d" = type { %"class.pxrInternal_v0_24__pxrReserved__::GfMatrixData" }
%"class.pxrInternal_v0_24__pxrReserved__::GfMatrixData" = type { [16 x double] }

; Function Attrs: mustprogress uwtable
define noundef i64 @_ZN32pxrInternal_v0_24__pxrReserved__31UsdImagingPointInstancerAdapter15SampleTransformERKNS_7UsdPrimERKNS_7SdfPathENS_11UsdTimeCodeEmPfPNS_10GfMatrix4dE(ptr noundef nonnull align 8 dereferenceable(88) %0, ptr noundef nonnull align 8 dereferenceable(32) %1, ptr noundef nonnull align 4 dereferenceable(8) %2, double %3, i64 noundef %4, ptr noundef %5, ptr noundef %6) unnamed_addr #0 align 2 {
  %8 = alloca i64, align 8
  %9 = alloca %"class.pxrInternal_v0_24__pxrReserved__::UsdTimeCode", align 8
  %10 = alloca ptr, align 8
  %11 = alloca ptr, align 8
  %12 = alloca ptr, align 8
  %13 = alloca i64, align 8
  %14 = alloca ptr, align 8
  %15 = alloca ptr, align 8
  %16 = alloca %"class.pxrInternal_v0_24__pxrReserved__::GfMatrix4d", align 8
  %17 = alloca %"class.pxrInternal_v0_24__pxrReserved__::UsdTimeCode", align 8
  %18 = getelementptr inbounds nuw %"class.pxrInternal_v0_24__pxrReserved__::UsdTimeCode", ptr %9, i32 0, i32 0
  store double %3, ptr %18, align 8
  store ptr %0, ptr %10, align 8
  store ptr %1, ptr %11, align 8
  store ptr %2, ptr %12, align 8
  store i64 %4, ptr %13, align 8
  store ptr %5, ptr %14, align 8
  store ptr %6, ptr %15, align 8
  %19 = load ptr, ptr %10, align 8
  %20 = load i64, ptr %13, align 8
  %21 = icmp eq i64 %20, 0
  br i1 %21, label %22, label %23

22:                                               ; preds = %7
  store i64 0, ptr %8, align 8
  br label %35

23:                                               ; preds = %7
  %24 = load ptr, ptr %14, align 8
  %25 = getelementptr inbounds float, ptr %24, i64 0
  store float 0.000000e+00, ptr %25, align 4
  %26 = load ptr, ptr %11, align 8
  %27 = load ptr, ptr %12, align 8
  call void @llvm.memcpy.p0.p0.i64(ptr align 8 %17, ptr align 8 %9, i64 8, i1 false)
  %28 = getelementptr inbounds nuw %"class.pxrInternal_v0_24__pxrReserved__::UsdTimeCode", ptr %17, i32 0, i32 0
  %29 = load double, ptr %28, align 8
  %30 = load ptr, ptr %19, align 8
  %31 = getelementptr inbounds ptr, ptr %30, i64 47
  %32 = load ptr, ptr %31, align 8
  call void %32(ptr dead_on_unwind writable sret(%"class.pxrInternal_v0_24__pxrReserved__::GfMatrix4d") align 8 %16, ptr noundef nonnull align 8 dereferenceable(88) %19, ptr noundef nonnull align 8 dereferenceable(32) %26, ptr noundef nonnull align 4 dereferenceable(8) %27, double %29, i1 noundef zeroext false)
  %33 = load ptr, ptr %15, align 8
  %34 = getelementptr inbounds %"class.pxrInternal_v0_24__pxrReserved__::GfMatrix4d", ptr %33, i64 0
  call void @llvm.memcpy.p0.p0.i64(ptr align 8 %34, ptr align 8 %16, i64 128, i1 false)
  store i64 1, ptr %8, align 8
  br label %35

35:                                               ; preds = %23, %22
  %36 = load i64, ptr %8, align 8
  ret i64 %36
}