; Function Attrs: mustprogress uwtable
define noundef range(i64 0, 2) i64 @_ZN32pxrInternal_v0_24__pxrReserved__31UsdImagingPointInstancerAdapter15SampleTransformERKNS_7UsdPrimERKNS_7SdfPathENS_11UsdTimeCodeEmPfPNS_10GfMatrix4dE(ptr noundef nonnull align 8 dereferenceable(88) %0, ptr noundef nonnull align 8 dereferenceable(32) %1, ptr noundef nonnull align 4 dereferenceable(8) %2, double %3, i64 noundef %4, ptr nocapture noundef writeonly %5, ptr nocapture noundef writeonly %6) unnamed_addr #0 align 2 {
  %8 = alloca %"class.pxrInternal_v0_24__pxrReserved__::GfMatrix4d", align 8
  %9 = icmp eq i64 %4, 0
  br i1 %9, label %14, label %10

10:                                               ; preds = %7
  store float 0.000000e+00, ptr %5, align 4
  %11 = load ptr, ptr %0, align 8
  %12 = getelementptr inbounds i8, ptr %11, i64 376
  %13 = load ptr, ptr %12, align 8
  call void %13(ptr dead_on_unwind nonnull writable sret(%"class.pxrInternal_v0_24__pxrReserved__::GfMatrix4d") align 8 %8, ptr noundef nonnull align 8 dereferenceable(88) %0, ptr noundef nonnull align 8 dereferenceable(32) %1, ptr noundef nonnull align 4 dereferenceable(8) %2, double %3, i1 noundef zeroext false)
  call void @llvm.memcpy.p0.p0.i64(ptr noundef nonnull align 8 dereferenceable(128) %6, ptr noundef nonnull align 8 dereferenceable(128) %8, i64 128, i1 false)
  br label %14

14:                                               ; preds = %7, %10
  %.0 = phi i64 [ 1, %10 ], [ 0, %7 ]
  ret i64 %.0
}